target datalayout = "e-m:e-p270:32:32-p271:32:32-p272:64:64-i64:64-i128:128-f80:128-n8:16:32:64-S128"
target triple = "x86_64-pc-linux-gnu"

@.str.2 = private unnamed_addr constant [57 x i8] c"ABC framework is not initialized by calling Abc_Start()\0A\00", align 1
@.str.3 = private unnamed_addr constant [50 x i8] c"Current network in ABC framework is not defined.\0A\00", align 1

; Function Attrs: nounwind uwtable
define void @Abc_NtkSetFlopNum(ptr noundef %0, i32 noundef %1) #0 {
  %3 = alloca ptr, align 8
  %4 = alloca i32, align 4
  %5 = alloca ptr, align 8
  store ptr %0, ptr %3, align 8, !tbaa !59
  store i32 %1, ptr %4, align 4, !tbaa !12
  call void @llvm.lifetime.start.p0(i64 8, ptr %5) #9
  %6 = load ptr, ptr %3, align 8, !tbaa !59
  %7 = icmp eq ptr %6, null
  br i1 %7, label %8, label %10

8:                                                ; preds = %2
  %9 = call i32 (ptr, ...) @printf(ptr noundef @.str.2)
  br label %10

10:                                               ; preds = %8, %2
  %11 = load ptr, ptr %3, align 8, !tbaa !59
  %12 = call ptr @Abc_FrameReadNtk(ptr noundef %11)
  store ptr %12, ptr %5, align 8, !tbaa !3
  %13 = load ptr, ptr %5, align 8, !tbaa !3
  %14 = icmp eq ptr %13, null
  br i1 %14, label %15, label %17

15:                                               ; preds = %10
  %16 = call i32 (ptr, ...) @printf(ptr noundef @.str.3)
  br label %17

17:                                               ; preds = %15, %10
  %18 = load ptr, ptr %5, align 8, !tbaa !3
  %19 = load i32, ptr %4, align 4, !tbaa !12
  call void @Abc_NtkMakeSeq(ptr noundef %18, i32 noundef %19)
  call void @llvm.lifetime.end.p0(i64 8, ptr %5) #9
  ret void
}