; Function Attrs: nounwind uwtable
define void @Abc_NtkSetFlopNum(ptr noundef %0, i32 noundef %1) local_unnamed_addr #2 {
  %3 = icmp eq ptr %0, null
  br i1 %3, label %4, label %5

4:                                                ; preds = %2
  %puts = tail call i32 @puts(ptr nonnull dereferenceable(1) @str.3)
  br label %5

5:                                                ; preds = %4, %2
  %6 = tail call ptr @Abc_FrameReadNtk(ptr noundef %0) #11
  %7 = icmp eq ptr %6, null
  br i1 %7, label %8, label %9

8:                                                ; preds = %5
  %puts4 = tail call i32 @puts(ptr nonnull dereferenceable(1) @str.4)
  br label %9

9:                                                ; preds = %8, %5
  tail call void @Abc_NtkMakeSeq(ptr noundef %6, i32 noundef %1) #11
  ret void
}